; Function Attrs: nofree norecurse nosync nounwind memory(read, argmem: readwrite, inaccessiblemem: none) uwtable
define hidden range(i32 0, 2) i32 @od_ec_decode_bool_q15(ptr nocapture noundef nonnull %0, i32 noundef %1) local_unnamed_addr #1 {
  %3 = getelementptr inbounds nuw i8, ptr %0, i64 32
  %4 = load i32, ptr %3, align 8
  %5 = getelementptr inbounds nuw i8, ptr %0, i64 36
  %6 = load i16, ptr %5, align 4
  %7 = zext i16 %6 to i32
  %8 = lshr i32 %7, 8
  %9 = lshr i32 %1, 6
  %10 = mul i32 %8, %9
  %11 = lshr i32 %10, 1
  %12 = add nuw i32 %11, 4
  %13 = shl i32 %12, 16
  %.not = icmp ult i32 %4, %13
  br i1 %.not, label %.split18, label %.split

.split18:                                         ; preds = %2
  %14 = tail call range(i32 0, 33) i32 @llvm.ctlz.i32(i32 %12, i1 true)
  %15 = xor i32 %14, 31
  %16 = sub nsw i32 15, %15
  %17 = getelementptr inbounds nuw i8, ptr %0, i64 38
  %18 = load i16, ptr %17, align 2
  %19 = trunc nsw i32 %16 to i16
  %20 = sub i16 %18, %19
  store i16 %20, ptr %17, align 2
  %21 = add nuw i32 %4, 1
  %22 = shl i32 %21, %16
  %23 = add i32 %22, -1
  store i32 %23, ptr %3, align 8
  %24 = shl i32 %12, %16
  %25 = trunc i32 %24 to i16
  store i16 %25, ptr %5, align 4
  %26 = icmp slt i16 %20, 0
  br i1 %26, label %27, label %od_ec_dec_normalize.exit

27:                                               ; preds = %.split18
  %28 = getelementptr inbounds nuw i8, ptr %0, i64 24
  %29 = load ptr, ptr %28, align 8
  %30 = getelementptr inbounds nuw i8, ptr %0, i64 16
  %31 = load ptr, ptr %30, align 8
  %32 = icmp ult ptr %29, %31
  br i1 %32, label %.lr.ph.preheader.i.i, label %._crit_edge.i.thread.i

.lr.ph.preheader.i.i:                             ; preds = %27
  %33 = sext i16 %20 to i32
  %34 = sub nsw i32 8, %33
  br label %.lr.ph.i.i

.lr.ph.i.i:                                       ; preds = %.lr.ph.i.i, %.lr.ph.preheader.i.i
  %.029.i.i = phi i32 [ %40, %.lr.ph.i.i ], [ %34, %.lr.ph.preheader.i.i ]
  %.02328.i.i = phi ptr [ %41, %.lr.ph.i.i ], [ %29, %.lr.ph.preheader.i.i ]
  %.02427.i.i = phi i16 [ %39, %.lr.ph.i.i ], [ %20, %.lr.ph.preheader.i.i ]
  %.02526.i.i = phi i32 [ %38, %.lr.ph.i.i ], [ %23, %.lr.ph.preheader.i.i ]
  %35 = load i8, ptr %.02328.i.i, align 1
  %36 = zext i8 %35 to i32
  %37 = shl i32 %36, %.029.i.i
  %38 = xor i32 %37, %.02526.i.i
  %39 = add i16 %.02427.i.i, 8
  %40 = add nsw i32 %.029.i.i, -8
  %41 = getelementptr inbounds i8, ptr %.02328.i.i, i64 1
  %42 = icmp ugt i32 %.029.i.i, 7
  %43 = icmp ult ptr %41, %31
  %44 = select i1 %42, i1 %43, i1 false
  br i1 %44, label %.lr.ph.i.i, label %._crit_edge.i.i, !llvm.loop !4

._crit_edge.i.i:                                  ; preds = %.lr.ph.i.i
  br i1 %43, label %od_ec_dec_refill.exit.i, label %._crit_edge.i.thread.i

._crit_edge.i.thread.i:                           ; preds = %._crit_edge.i.i, %27
  %.023.lcssa.i18.i = phi ptr [ %41, %._crit_edge.i.i ], [ %29, %27 ]
  %.024.lcssa.i17.i = phi i16 [ %39, %._crit_edge.i.i ], [ %20, %27 ]
  %.025.lcssa.i15.i = phi i32 [ %38, %._crit_edge.i.i ], [ %23, %27 ]
  %45 = sext i16 %.024.lcssa.i17.i to i32
  %46 = getelementptr inbounds nuw i8, ptr %0, i64 8
  %47 = load i32, ptr %46, align 8
  %reass.sub46 = sub i32 %47, %45
  %48 = add i32 %reass.sub46, 16384
  store i32 %48, ptr %46, align 8
  br label %od_ec_dec_refill.exit.i

od_ec_dec_refill.exit.i:                          ; preds = %._crit_edge.i.thread.i, %._crit_edge.i.i
  %.023.lcssa.i19.i = phi ptr [ %.023.lcssa.i18.i, %._crit_edge.i.thread.i ], [ %41, %._crit_edge.i.i ]
  %.025.lcssa.i16.i = phi i32 [ %.025.lcssa.i15.i, %._crit_edge.i.thread.i ], [ %38, %._crit_edge.i.i ]
  %.1.i.i = phi i16 [ 16384, %._crit_edge.i.thread.i ], [ %39, %._crit_edge.i.i ]
  store i32 %.025.lcssa.i16.i, ptr %3, align 8
  store i16 %.1.i.i, ptr %17, align 2
  store ptr %.023.lcssa.i19.i, ptr %28, align 8
  br label %od_ec_dec_normalize.exit

.split:                                           ; preds = %2
  %49 = sub i32 %7, %12
  %50 = tail call range(i32 0, 33) i32 @llvm.ctlz.i32(i32 %49, i1 true)
  %51 = xor i32 %50, 31
  %52 = sub nsw i32 15, %51
  %53 = getelementptr inbounds nuw i8, ptr %0, i64 38
  %54 = load i16, ptr %53, align 2
  %55 = trunc nsw i32 %52 to i16
  %56 = sub i16 %54, %55
  store i16 %56, ptr %53, align 2
  %57 = add i32 %4, 1
  %58 = sub i32 %57, %13
  %59 = shl i32 %58, %52
  %60 = add i32 %59, -1
  store i32 %60, ptr %3, align 8
  %61 = shl i32 %49, %52
  %62 = trunc i32 %61 to i16
  store i16 %62, ptr %5, align 4
  %63 = icmp slt i16 %56, 0
  br i1 %63, label %64, label %od_ec_dec_normalize.exit

64:                                               ; preds = %.split
  %65 = getelementptr inbounds nuw i8, ptr %0, i64 24
  %66 = load ptr, ptr %65, align 8
  %67 = getelementptr inbounds nuw i8, ptr %0, i64 16
  %68 = load ptr, ptr %67, align 8
  %69 = icmp ult ptr %66, %68
  br i1 %69, label %.lr.ph.preheader.i.i29, label %._crit_edge.i.thread.i20

.lr.ph.preheader.i.i29:                           ; preds = %64
  %70 = sext i16 %56 to i32
  %71 = sub nsw i32 8, %70
  br label %.lr.ph.i.i30

.lr.ph.i.i30:                                     ; preds = %.lr.ph.i.i30, %.lr.ph.preheader.i.i29
  %.029.i.i31 = phi i32 [ %77, %.lr.ph.i.i30 ], [ %71, %.lr.ph.preheader.i.i29 ]
  %.02328.i.i32 = phi ptr [ %78, %.lr.ph.i.i30 ], [ %66, %.lr.ph.preheader.i.i29 ]
  %.02427.i.i33 = phi i16 [ %76, %.lr.ph.i.i30 ], [ %56, %.lr.ph.preheader.i.i29 ]
  %.02526.i.i34 = phi i32 [ %75, %.lr.ph.i.i30 ], [ %60, %.lr.ph.preheader.i.i29 ]
  %72 = load i8, ptr %.02328.i.i32, align 1
  %73 = zext i8 %72 to i32
  %74 = shl i32 %73, %.029.i.i31
  %75 = xor i32 %74, %.02526.i.i34
  %76 = add i16 %.02427.i.i33, 8
  %77 = add nsw i32 %.029.i.i31, -8
  %78 = getelementptr inbounds i8, ptr %.02328.i.i32, i64 1
  %79 = icmp ugt i32 %.029.i.i31, 7
  %80 = icmp ult ptr %78, %68
  %81 = select i1 %79, i1 %80, i1 false
  br i1 %81, label %.lr.ph.i.i30, label %._crit_edge.i.i35, !llvm.loop !4

._crit_edge.i.i35:                                ; preds = %.lr.ph.i.i30
  br i1 %80, label %od_ec_dec_refill.exit.i25, label %._crit_edge.i.thread.i20

._crit_edge.i.thread.i20:                         ; preds = %._crit_edge.i.i35, %64
  %.023.lcssa.i18.i21 = phi ptr [ %78, %._crit_edge.i.i35 ], [ %66, %64 ]
  %.024.lcssa.i17.i22 = phi i16 [ %76, %._crit_edge.i.i35 ], [ %56, %64 ]
  %.025.lcssa.i15.i23 = phi i32 [ %75, %._crit_edge.i.i35 ], [ %60, %64 ]
  %82 = sext i16 %.024.lcssa.i17.i22 to i32
  %83 = getelementptr inbounds nuw i8, ptr %0, i64 8
  %84 = load i32, ptr %83, align 8
  %reass.sub = sub i32 %84, %82
  %85 = add i32 %reass.sub, 16384
  store i32 %85, ptr %83, align 8
  br label %od_ec_dec_refill.exit.i25

od_ec_dec_refill.exit.i25:                        ; preds = %._crit_edge.i.thread.i20, %._crit_edge.i.i35
  %.023.lcssa.i19.i26 = phi ptr [ %.023.lcssa.i18.i21, %._crit_edge.i.thread.i20 ], [ %78, %._crit_edge.i.i35 ]
  %.025.lcssa.i16.i27 = phi i32 [ %.025.lcssa.i15.i23, %._crit_edge.i.thread.i20 ], [ %75, %._crit_edge.i.i35 ]
  %.1.i.i28 = phi i16 [ 16384, %._crit_edge.i.thread.i20 ], [ %76, %._crit_edge.i.i35 ]
  store i32 %.025.lcssa.i16.i27, ptr %3, align 8
  store i16 %.1.i.i28, ptr %53, align 2
  store ptr %.023.lcssa.i19.i26, ptr %65, align 8
  br label %od_ec_dec_normalize.exit

od_ec_dec_normalize.exit:                         ; preds = %od_ec_dec_refill.exit.i25, %.split, %od_ec_dec_refill.exit.i, %.split18
  %phi.call = phi i32 [ 1, %.split18 ], [ 1, %od_ec_dec_refill.exit.i ], [ 0, %.split ], [ 0, %od_ec_dec_refill.exit.i25 ]
  ret i32 %phi.call
}